; Function Attrs: mustprogress nofree norecurse nosync nounwind willreturn memory(argmem: read) uwtable
define internal { i64, i8 } @_ZNK4node12_GLOBAL__N_17FdEntry4sizeEv(ptr nocapture noundef nonnull readonly align 8 dereferenceable(208) %this) unnamed_addr #12 align 2 {
entry:
  %end_ = getelementptr inbounds i8, ptr %this, i64 200
  %0 = load i64, ptr %end_, align 8
  %start_ = getelementptr inbounds i8, ptr %this, i64 192
  %1 = load i64, ptr %start_, align 8
  %sub = sub i64 %0, %1
  %.fca.0.insert = insertvalue { i64, i8 } poison, i64 %sub, 0
  %.fca.1.insert = insertvalue { i64, i8 } %.fca.0.insert, i8 1, 1
  ret { i64, i8 } %.fca.1.insert
}